; Function Attrs: mustprogress uwtable
define void @_ZN3net18SettingsFlagsAndIdC2Ehj(ptr noundef nonnull writeonly align 4 captures(none) dereferenceable(8) initializes((0, 1), (4, 8)) %0, i8 noundef zeroext %1, i32 noundef %2) unnamed_addr #0 align 2 personality ptr @__gxx_personality_v0 {
  %4 = alloca %"class.logging::LogMessage", align 8
  store i8 %1, ptr %0, align 4, !tbaa !3
  %5 = getelementptr inbounds nuw i8, ptr %0, i64 4
  %6 = and i32 %2, 16777215
  store i32 %6, ptr %5, align 4, !tbaa !8
  %7 = tail call noundef zeroext i1 @_ZN7logging22ShouldCreateLogMessageEi(i32 noundef 2)
  %8 = icmp ugt i32 %2, 16777216
  %or.cond = and i1 %8, %7
  br i1 %or.cond, label %9, label %.critedge13

9:                                                ; preds = %3
  call void @llvm.lifetime.start.p0(i64 408, ptr nonnull %4) #25
  call void @_ZN7logging10LogMessageC1EPKcii(ptr noundef nonnull align 8 dereferenceable(404) %4, ptr noundef nonnull @.str, i32 noundef 168, i32 noundef 2)
  %10 = getelementptr inbounds nuw i8, ptr %4, i64 8
  %11 = invoke noundef nonnull align 8 dereferenceable(8) ptr @_ZSt16__ostream_insertIcSt11char_traitsIcEERSt13basic_ostreamIT_T0_ES6_PKS3_l(ptr noundef nonnull align 8 dereferenceable(8) %10, ptr noundef nonnull @.str.1, i64 noundef 27)
          to label %_ZStlsISt11char_traitsIcEERSt13basic_ostreamIcT_ES5_PKc.exit unwind label %14

_ZStlsISt11char_traitsIcEERSt13basic_ostreamIcT_ES5_PKc.exit: ; preds = %9
  %12 = zext i32 %2 to i64
  %13 = invoke noundef nonnull align 8 dereferenceable(8) ptr @_ZNSo9_M_insertImEERSoT_(ptr noundef nonnull align 8 dereferenceable(8) %10, i64 noundef %12)
          to label %.critedge unwind label %14

.critedge:                                        ; preds = %_ZStlsISt11char_traitsIcEERSt13basic_ostreamIcT_ES5_PKc.exit
  call void @_ZN7logging10LogMessageD1Ev(ptr noundef nonnull align 8 dereferenceable(404) %4) #25
  call void @llvm.lifetime.end.p0(i64 408, ptr nonnull %4) #25
  br label %.critedge13

.critedge13:                                      ; preds = %3, %.critedge
  ret void

14:                                               ; preds = %_ZStlsISt11char_traitsIcEERSt13basic_ostreamIcT_ES5_PKc.exit, %9
  %15 = landingpad { ptr, i32 }
          cleanup
  call void @_ZN7logging10LogMessageD1Ev(ptr noundef nonnull align 8 dereferenceable(404) %4) #25
  call void @llvm.lifetime.end.p0(i64 408, ptr nonnull %4) #25
  resume { ptr, i32 } %15
}